target datalayout = "e-m:e-p270:32:32-p271:32:32-p272:64:64-i64:64-i128:128-f80:128-n8:16:32:64-S128"
target triple = "x86_64-pc-linux-gnu"

%"class.gmx::PositionCalculationCollection::Impl" = type { ptr, ptr, ptr, i8, %"class.std::vector.5", %"class.std::vector.5" }
%"class.std::vector.5" = type { %"struct.std::_Vector_base.6" }
%"struct.std::_Vector_base.6" = type { %"struct.std::_Vector_base<int, std::allocator<int>>::_Vector_impl" }
%"struct.std::_Vector_base<int, std::allocator<int>>::_Vector_impl" = type { %"struct.std::_Vector_base<int, std::allocator<int>>::_Vector_impl_data" }
%"struct.std::_Vector_base<int, std::allocator<int>>::_Vector_impl_data" = type { ptr, ptr, ptr }
%struct.gmx_ana_poscalc_t = type { i32, i32, i32, %struct.t_blocka, ptr, %struct.gmx_ana_index_t, ptr, i8, ptr, ptr, ptr, i32, ptr }
%struct.t_blocka = type { i32, ptr, i32, ptr, i32, i32 }
%struct.gmx_ana_index_t = type { i32, ptr, i32 }
%"class.gmx::PositionCalculationCollection" = type { %"class.std::unique_ptr.12" }
%"class.std::unique_ptr.12" = type { %"struct.std::__uniq_ptr_data.13" }
%"struct.std::__uniq_ptr_data.13" = type { %"class.std::__uniq_ptr_impl.14" }
%"class.std::__uniq_ptr_impl.14" = type { %"class.std::tuple.15" }
%"class.std::tuple.15" = type { %"struct.std::_Tuple_impl.16" }
%"struct.std::_Tuple_impl.16" = type { %"struct.std::_Head_base.19" }
%"struct.std::_Head_base.19" = type { ptr }

@.str.18 = private unnamed_addr constant [127 x i8] c"generated/home/dtcxzyw/WorkSpace/Projects/compilers/llvm-opt-benchmark/bench/gromacs/gromacs/src/gromacs/selection/poscalc.cpp\00", align 1
@.str.53 = private unnamed_addr constant [11 x i8] c"pc->baseid\00", align 1
@.str.54 = private unnamed_addr constant [12 x i8] c"pc->b.index\00", align 1
@.str.55 = private unnamed_addr constant [8 x i8] c"pc->b.a\00", align 1

; Function Attrs: mustprogress nounwind uwtable
define linkonce_odr noundef nonnull align 8 dereferenceable(8) ptr @_ZNSt10_Head_baseILm0EPN3gmx29PositionCalculationCollection4ImplELb0EE7_M_headERKS4_(ptr noundef nonnull align 8 dereferenceable(8) %0) #3 comdat align 2 {
  %2 = alloca ptr, align 8
  store ptr %0, ptr %2, align 8, !tbaa !201
  %3 = load ptr, ptr %2, align 8, !tbaa !201
  %4 = getelementptr inbounds nuw %"struct.std::_Head_base.19", ptr %3, i32 0, i32 0
  ret ptr %4
}

; Function Attrs: mustprogress nounwind uwtable
define linkonce_odr noundef nonnull align 8 dereferenceable(8) ptr @_ZNSt11_Tuple_implILm0EJPN3gmx29PositionCalculationCollection4ImplESt14default_deleteIS2_EEE7_M_headERKS6_(ptr noundef nonnull align 8 dereferenceable(8) %0) #3 comdat align 2 {
  %2 = alloca ptr, align 8
  store ptr %0, ptr %2, align 8, !tbaa !197
  %3 = load ptr, ptr %2, align 8, !tbaa !197
  %4 = call noundef nonnull align 8 dereferenceable(8) ptr @_ZNSt10_Head_baseILm0EPN3gmx29PositionCalculationCollection4ImplELb0EE7_M_headERKS4_(ptr noundef nonnull align 8 dereferenceable(8) %3) #17
  ret ptr %4
}

; Function Attrs: mustprogress nounwind uwtable
define linkonce_odr noundef nonnull align 8 dereferenceable(8) ptr @_ZSt12__get_helperILm0EPN3gmx29PositionCalculationCollection4ImplEJSt14default_deleteIS2_EEERKT0_RKSt11_Tuple_implIXT_EJS6_DpT1_EE(ptr noundef nonnull align 8 dereferenceable(8) %0) #3 comdat {
  %2 = alloca ptr, align 8
  store ptr %0, ptr %2, align 8, !tbaa !197
  %3 = load ptr, ptr %2, align 8, !tbaa !197
  %4 = call noundef nonnull align 8 dereferenceable(8) ptr @_ZNSt11_Tuple_implILm0EJPN3gmx29PositionCalculationCollection4ImplESt14default_deleteIS2_EEE7_M_headERKS6_(ptr noundef nonnull align 8 dereferenceable(8) %3) #17
  ret ptr %4
}

; Function Attrs: mustprogress nounwind uwtable
define linkonce_odr noundef nonnull align 8 dereferenceable(8) ptr @_ZSt3getILm0EJPN3gmx29PositionCalculationCollection4ImplESt14default_deleteIS2_EEERKNSt13tuple_elementIXT_ESt5tupleIJDpT0_EEE4typeERKSA_(ptr noundef nonnull align 8 dereferenceable(8) %0) #3 comdat {
  %2 = alloca ptr, align 8
  store ptr %0, ptr %2, align 8, !tbaa !195
  %3 = load ptr, ptr %2, align 8, !tbaa !195
  %4 = call noundef nonnull align 8 dereferenceable(8) ptr @_ZSt12__get_helperILm0EPN3gmx29PositionCalculationCollection4ImplEJSt14default_deleteIS2_EEERKT0_RKSt11_Tuple_implIXT_EJS6_DpT1_EE(ptr noundef nonnull align 8 dereferenceable(8) %3) #17
  ret ptr %4
}

; Function Attrs: mustprogress nounwind uwtable
define linkonce_odr noundef ptr @_ZNKSt15__uniq_ptr_implIN3gmx29PositionCalculationCollection4ImplESt14default_deleteIS2_EE6_M_ptrEv(ptr noundef nonnull align 8 dereferenceable(8) %0) #3 comdat align 2 {
  %2 = alloca ptr, align 8
  store ptr %0, ptr %2, align 8, !tbaa !193
  %3 = load ptr, ptr %2, align 8
  %4 = getelementptr inbounds nuw %"class.std::__uniq_ptr_impl.14", ptr %3, i32 0, i32 0
  %5 = call noundef nonnull align 8 dereferenceable(8) ptr @_ZSt3getILm0EJPN3gmx29PositionCalculationCollection4ImplESt14default_deleteIS2_EEERKNSt13tuple_elementIXT_ESt5tupleIJDpT0_EEE4typeERKSA_(ptr noundef nonnull align 8 dereferenceable(8) %4) #17
  %6 = load ptr, ptr %5, align 8, !tbaa !134
  ret ptr %6
}

; Function Attrs: mustprogress nounwind uwtable
define linkonce_odr noundef ptr @_ZNKSt10unique_ptrIN3gmx29PositionCalculationCollection4ImplESt14default_deleteIS2_EE3getEv(ptr noundef nonnull align 8 dereferenceable(8) %0) #3 comdat align 2 {
  %2 = alloca ptr, align 8
  store ptr %0, ptr %2, align 8, !tbaa !189
  %3 = load ptr, ptr %2, align 8
  %4 = getelementptr inbounds nuw %"class.std::unique_ptr.12", ptr %3, i32 0, i32 0
  %5 = call noundef ptr @_ZNKSt15__uniq_ptr_implIN3gmx29PositionCalculationCollection4ImplESt14default_deleteIS2_EE6_M_ptrEv(ptr noundef nonnull align 8 dereferenceable(8) %4) #17
  ret ptr %5
}

; Function Attrs: inlinehint mustprogress uwtable
define internal void @_ZL14gmx_sfree_implIiEvPKcS1_iPT_(ptr noundef %0, ptr noundef %1, i32 noundef %2, ptr noundef %3) #2 {
  %5 = alloca ptr, align 8
  %6 = alloca ptr, align 8
  %7 = alloca i32, align 4
  %8 = alloca ptr, align 8
  store ptr %0, ptr %5, align 8, !tbaa !4
  store ptr %1, ptr %6, align 8, !tbaa !4
  store i32 %2, ptr %7, align 4, !tbaa !15
  store ptr %3, ptr %8, align 8, !tbaa !10
  %9 = load ptr, ptr %5, align 8, !tbaa !4
  %10 = load ptr, ptr %6, align 8, !tbaa !4
  %11 = load i32, ptr %7, align 4, !tbaa !15
  %12 = load ptr, ptr %8, align 8, !tbaa !10
  call void @_Z9save_freePKcS0_iPv(ptr noundef %9, ptr noundef %10, i32 noundef %11, ptr noundef %12)
  ret void
}

; Function Attrs: inlinehint mustprogress uwtable
define internal void @_ZL13gmx_snew_implIiEvPKcS1_iRPT_m(ptr noundef %0, ptr noundef %1, i32 noundef %2, ptr noundef nonnull align 8 dereferenceable(8) %3, i64 noundef %4) #2 {
  %6 = alloca ptr, align 8
  %7 = alloca ptr, align 8
  %8 = alloca i32, align 4
  %9 = alloca ptr, align 8
  %10 = alloca i64, align 8
  store ptr %0, ptr %6, align 8, !tbaa !4
  store ptr %1, ptr %7, align 8, !tbaa !4
  store i32 %2, ptr %8, align 4, !tbaa !15
  store ptr %3, ptr %9, align 8, !tbaa !234
  store i64 %4, ptr %10, align 8, !tbaa !92
  %11 = load ptr, ptr %6, align 8, !tbaa !4
  %12 = load ptr, ptr %7, align 8, !tbaa !4
  %13 = load i32, ptr %8, align 4, !tbaa !15
  %14 = load i64, ptr %10, align 8, !tbaa !92
  %15 = call noundef ptr @_Z11save_callocPKcS0_imm(ptr noundef %11, ptr noundef %12, i32 noundef %13, i64 noundef %14, i64 noundef 4)
  %16 = load ptr, ptr %9, align 8, !tbaa !234
  store ptr %15, ptr %16, align 8, !tbaa !10
  ret void
}

; Function Attrs: mustprogress nounwind uwtable
define linkonce_odr noundef ptr @_ZNKSt10unique_ptrIN3gmx29PositionCalculationCollection4ImplESt14default_deleteIS2_EEptEv(ptr noundef nonnull align 8 dereferenceable(8) %0) #3 comdat align 2 {
  %2 = alloca ptr, align 8
  store ptr %0, ptr %2, align 8, !tbaa !189
  %3 = load ptr, ptr %2, align 8
  %4 = call noundef ptr @_ZNKSt10unique_ptrIN3gmx29PositionCalculationCollection4ImplESt14default_deleteIS2_EE3getEv(ptr noundef nonnull align 8 dereferenceable(8) %3) #17
  ret ptr %4
}

; Function Attrs: mustprogress uwtable
define void @_ZN3gmx29PositionCalculationCollection14initEvaluationEv(ptr noundef nonnull align 8 dereferenceable(8) %0) #0 align 2 {
  %2 = alloca ptr, align 8
  %3 = alloca ptr, align 8
  %4 = alloca i32, align 4
  %5 = alloca i32, align 4
  store ptr %0, ptr %2, align 8, !tbaa !187
  %6 = load ptr, ptr %2, align 8
  %7 = getelementptr inbounds nuw %"class.gmx::PositionCalculationCollection", ptr %6, i32 0, i32 0
  %8 = call noundef ptr @_ZNKSt10unique_ptrIN3gmx29PositionCalculationCollection4ImplESt14default_deleteIS2_EEptEv(ptr noundef nonnull align 8 dereferenceable(8) %7) #17
  %9 = getelementptr inbounds nuw %"class.gmx::PositionCalculationCollection::Impl", ptr %8, i32 0, i32 3
  %10 = load i8, ptr %9, align 8, !tbaa !146, !range !132, !noundef !133
  %11 = trunc i8 %10 to i1
  br i1 %11, label %12, label %13

12:                                               ; preds = %1
  br label %148

13:                                               ; preds = %1
  call void @llvm.lifetime.start.p0(i64 8, ptr %3) #17
  %14 = getelementptr inbounds nuw %"class.gmx::PositionCalculationCollection", ptr %6, i32 0, i32 0
  %15 = call noundef ptr @_ZNKSt10unique_ptrIN3gmx29PositionCalculationCollection4ImplESt14default_deleteIS2_EEptEv(ptr noundef nonnull align 8 dereferenceable(8) %14) #17
  %16 = getelementptr inbounds nuw %"class.gmx::PositionCalculationCollection::Impl", ptr %15, i32 0, i32 1
  %17 = load ptr, ptr %16, align 8, !tbaa !144
  store ptr %17, ptr %3, align 8, !tbaa !171
  br label %18

18:                                               ; preds = %140, %13
  %19 = load ptr, ptr %3, align 8, !tbaa !171
  %20 = icmp ne ptr %19, null
  br i1 %20, label %21, label %144

21:                                               ; preds = %18
  %22 = load ptr, ptr %3, align 8, !tbaa !171
  %23 = getelementptr inbounds nuw %struct.gmx_ana_poscalc_t, ptr %22, i32 0, i32 6
  %24 = load ptr, ptr %23, align 8, !tbaa !178
  %25 = icmp ne ptr %24, null
  br i1 %25, label %26, label %31

26:                                               ; preds = %21
  %27 = load ptr, ptr %3, align 8, !tbaa !171
  %28 = load ptr, ptr %3, align 8, !tbaa !171
  %29 = getelementptr inbounds nuw %struct.gmx_ana_poscalc_t, ptr %28, i32 0, i32 6
  %30 = load ptr, ptr %29, align 8, !tbaa !178
  call void @_Z24gmx_ana_poscalc_init_posP17gmx_ana_poscalc_tP13gmx_ana_pos_t(ptr noundef %27, ptr noundef %30)
  br label %31

31:                                               ; preds = %26, %21
  %32 = load ptr, ptr %3, align 8, !tbaa !171
  %33 = getelementptr inbounds nuw %struct.gmx_ana_poscalc_t, ptr %32, i32 0, i32 8
  %34 = load ptr, ptr %33, align 8, !tbaa !179
  %35 = icmp ne ptr %34, null
  br i1 %35, label %36, label %105

36:                                               ; preds = %31
  call void @llvm.lifetime.start.p0(i64 4, ptr %4) #17
  call void @llvm.lifetime.start.p0(i64 4, ptr %5) #17
  %37 = load ptr, ptr %3, align 8, !tbaa !171
  %38 = getelementptr inbounds nuw %struct.gmx_ana_poscalc_t, ptr %37, i32 0, i32 4
  %39 = load ptr, ptr %3, align 8, !tbaa !171
  %40 = getelementptr inbounds nuw %struct.gmx_ana_poscalc_t, ptr %39, i32 0, i32 3
  %41 = getelementptr inbounds nuw %struct.t_blocka, ptr %40, i32 0, i32 0
  %42 = load i32, ptr %41, align 8, !tbaa !212
  %43 = sext i32 %42 to i64
  call void @_ZL13gmx_snew_implIiEvPKcS1_iRPT_m(ptr noundef @.str.53, ptr noundef @.str.18, i32 noundef 649, ptr noundef nonnull align 8 dereferenceable(8) %38, i64 noundef %43)
  store i32 0, ptr %5, align 4, !tbaa !15
  store i32 0, ptr %4, align 4, !tbaa !15
  br label %44

44:                                               ; preds = %99, %36
  %45 = load i32, ptr %4, align 4, !tbaa !15
  %46 = load ptr, ptr %3, align 8, !tbaa !171
  %47 = getelementptr inbounds nuw %struct.gmx_ana_poscalc_t, ptr %46, i32 0, i32 3
  %48 = getelementptr inbounds nuw %struct.t_blocka, ptr %47, i32 0, i32 0
  %49 = load i32, ptr %48, align 8, !tbaa !212
  %50 = icmp slt i32 %45, %49
  br i1 %50, label %51, label %104

51:                                               ; preds = %44
  br label %52

52:                                               ; preds = %88, %51
  %53 = load ptr, ptr %3, align 8, !tbaa !171
  %54 = getelementptr inbounds nuw %struct.gmx_ana_poscalc_t, ptr %53, i32 0, i32 8
  %55 = load ptr, ptr %54, align 8, !tbaa !179
  %56 = getelementptr inbounds nuw %struct.gmx_ana_poscalc_t, ptr %55, i32 0, i32 3
  %57 = getelementptr inbounds nuw %struct.t_blocka, ptr %56, i32 0, i32 3
  %58 = load ptr, ptr %57, align 8, !tbaa !176
  %59 = load ptr, ptr %3, align 8, !tbaa !171
  %60 = getelementptr inbounds nuw %struct.gmx_ana_poscalc_t, ptr %59, i32 0, i32 8
  %61 = load ptr, ptr %60, align 8, !tbaa !179
  %62 = getelementptr inbounds nuw %struct.gmx_ana_poscalc_t, ptr %61, i32 0, i32 3
  %63 = getelementptr inbounds nuw %struct.t_blocka, ptr %62, i32 0, i32 1
  %64 = load ptr, ptr %63, align 8, !tbaa !174
  %65 = load i32, ptr %5, align 4, !tbaa !15
  %66 = sext i32 %65 to i64
  %67 = getelementptr inbounds i32, ptr %64, i64 %66
  %68 = load i32, ptr %67, align 4, !tbaa !15
  %69 = sext i32 %68 to i64
  %70 = getelementptr inbounds i32, ptr %58, i64 %69
  %71 = load i32, ptr %70, align 4, !tbaa !15
  %72 = load ptr, ptr %3, align 8, !tbaa !171
  %73 = getelementptr inbounds nuw %struct.gmx_ana_poscalc_t, ptr %72, i32 0, i32 3
  %74 = getelementptr inbounds nuw %struct.t_blocka, ptr %73, i32 0, i32 3
  %75 = load ptr, ptr %74, align 8, !tbaa !176
  %76 = load ptr, ptr %3, align 8, !tbaa !171
  %77 = getelementptr inbounds nuw %struct.gmx_ana_poscalc_t, ptr %76, i32 0, i32 3
  %78 = getelementptr inbounds nuw %struct.t_blocka, ptr %77, i32 0, i32 1
  %79 = load ptr, ptr %78, align 8, !tbaa !174
  %80 = load i32, ptr %4, align 4, !tbaa !15
  %81 = sext i32 %80 to i64
  %82 = getelementptr inbounds i32, ptr %79, i64 %81
  %83 = load i32, ptr %82, align 4, !tbaa !15
  %84 = sext i32 %83 to i64
  %85 = getelementptr inbounds i32, ptr %75, i64 %84
  %86 = load i32, ptr %85, align 4, !tbaa !15
  %87 = icmp ne i32 %71, %86
  br i1 %87, label %88, label %91

88:                                               ; preds = %52
  %89 = load i32, ptr %5, align 4, !tbaa !15
  %90 = add nsw i32 %89, 1
  store i32 %90, ptr %5, align 4, !tbaa !15
  br label %52, !llvm.loop !226

91:                                               ; preds = %52
  %92 = load i32, ptr %5, align 4, !tbaa !15
  %93 = load ptr, ptr %3, align 8, !tbaa !171
  %94 = getelementptr inbounds nuw %struct.gmx_ana_poscalc_t, ptr %93, i32 0, i32 4
  %95 = load ptr, ptr %94, align 8, !tbaa !180
  %96 = load i32, ptr %4, align 4, !tbaa !15
  %97 = sext i32 %96 to i64
  %98 = getelementptr inbounds i32, ptr %95, i64 %97
  store i32 %92, ptr %98, align 4, !tbaa !15
  br label %99

99:                                               ; preds = %91
  %100 = load i32, ptr %4, align 4, !tbaa !15
  %101 = add nsw i32 %100, 1
  store i32 %101, ptr %4, align 4, !tbaa !15
  %102 = load i32, ptr %5, align 4, !tbaa !15
  %103 = add nsw i32 %102, 1
  store i32 %103, ptr %5, align 4, !tbaa !15
  br label %44, !llvm.loop !227

104:                                              ; preds = %44
  call void @llvm.lifetime.end.p0(i64 4, ptr %5) #17
  call void @llvm.lifetime.end.p0(i64 4, ptr %4) #17
  br label %105

105:                                              ; preds = %104, %31
  %106 = load ptr, ptr %3, align 8, !tbaa !171
  %107 = getelementptr inbounds nuw %struct.gmx_ana_poscalc_t, ptr %106, i32 0, i32 1
  %108 = load i32, ptr %107, align 4, !tbaa !177
  %109 = and i32 %108, 16
  %110 = icmp ne i32 %109, 0
  br i1 %110, label %111, label %140

111:                                              ; preds = %105
  %112 = load ptr, ptr %3, align 8, !tbaa !171
  %113 = getelementptr inbounds nuw %struct.gmx_ana_poscalc_t, ptr %112, i32 0, i32 3
  %114 = getelementptr inbounds nuw %struct.t_blocka, ptr %113, i32 0, i32 4
  %115 = load i32, ptr %114, align 8, !tbaa !173
  %116 = icmp sgt i32 %115, 0
  br i1 %116, label %117, label %125

117:                                              ; preds = %111
  %118 = load ptr, ptr %3, align 8, !tbaa !171
  %119 = getelementptr inbounds nuw %struct.gmx_ana_poscalc_t, ptr %118, i32 0, i32 3
  %120 = getelementptr inbounds nuw %struct.t_blocka, ptr %119, i32 0, i32 1
  %121 = load ptr, ptr %120, align 8, !tbaa !174
  call void @_ZL14gmx_sfree_implIiEvPKcS1_iPT_(ptr noundef @.str.54, ptr noundef @.str.18, i32 noundef 664, ptr noundef %121)
  %122 = load ptr, ptr %3, align 8, !tbaa !171
  %123 = getelementptr inbounds nuw %struct.gmx_ana_poscalc_t, ptr %122, i32 0, i32 3
  %124 = getelementptr inbounds nuw %struct.t_blocka, ptr %123, i32 0, i32 4
  store i32 0, ptr %124, align 8, !tbaa !173
  br label %125

125:                                              ; preds = %117, %111
  %126 = load ptr, ptr %3, align 8, !tbaa !171
  %127 = getelementptr inbounds nuw %struct.gmx_ana_poscalc_t, ptr %126, i32 0, i32 3
  %128 = getelementptr inbounds nuw %struct.t_blocka, ptr %127, i32 0, i32 5
  %129 = load i32, ptr %128, align 4, !tbaa !175
  %130 = icmp sgt i32 %129, 0
  br i1 %130, label %131, label %139

131:                                              ; preds = %125
  %132 = load ptr, ptr %3, align 8, !tbaa !171
  %133 = getelementptr inbounds nuw %struct.gmx_ana_poscalc_t, ptr %132, i32 0, i32 3
  %134 = getelementptr inbounds nuw %struct.t_blocka, ptr %133, i32 0, i32 3
  %135 = load ptr, ptr %134, align 8, !tbaa !176
  call void @_ZL14gmx_sfree_implIiEvPKcS1_iPT_(ptr noundef @.str.55, ptr noundef @.str.18, i32 noundef 669, ptr noundef %135)
  %136 = load ptr, ptr %3, align 8, !tbaa !171
  %137 = getelementptr inbounds nuw %struct.gmx_ana_poscalc_t, ptr %136, i32 0, i32 3
  %138 = getelementptr inbounds nuw %struct.t_blocka, ptr %137, i32 0, i32 5
  store i32 0, ptr %138, align 4, !tbaa !175
  br label %139

139:                                              ; preds = %131, %125
  br label %140

140:                                              ; preds = %139, %105
  %141 = load ptr, ptr %3, align 8, !tbaa !171
  %142 = getelementptr inbounds nuw %struct.gmx_ana_poscalc_t, ptr %141, i32 0, i32 9
  %143 = load ptr, ptr %142, align 8, !tbaa !181
  store ptr %143, ptr %3, align 8, !tbaa !171
  br label %18, !llvm.loop !228

144:                                              ; preds = %18
  %145 = getelementptr inbounds nuw %"class.gmx::PositionCalculationCollection", ptr %6, i32 0, i32 0
  %146 = call noundef ptr @_ZNKSt10unique_ptrIN3gmx29PositionCalculationCollection4ImplESt14default_deleteIS2_EEptEv(ptr noundef nonnull align 8 dereferenceable(8) %145) #17
  %147 = getelementptr inbounds nuw %"class.gmx::PositionCalculationCollection::Impl", ptr %146, i32 0, i32 3
  store i8 1, ptr %147, align 8, !tbaa !146
  call void @llvm.lifetime.end.p0(i64 8, ptr %3) #17
  br label %148

148:                                              ; preds = %144, %12
  ret void
}