; Function Attrs: mustprogress uwtable
define void @_ZN3gmx29PositionCalculationCollection14initEvaluationEv(ptr noundef nonnull readonly align 8 captures(none) dereferenceable(8) %0) local_unnamed_addr #0 align 2 {
  %2 = load ptr, ptr %0, align 8, !tbaa !84
  %3 = getelementptr inbounds nuw i8, ptr %2, i64 24
  %4 = load i8, ptr %3, align 8, !tbaa !99, !range !100, !noundef !101
  %5 = trunc nuw i8 %4 to i1
  br i1 %5, label %71, label %6

6:                                                ; preds = %1
  %7 = getelementptr inbounds nuw i8, ptr %2, i64 8
  %.03038 = load ptr, ptr %7, align 8, !tbaa !86
  %.not39 = icmp eq ptr %.03038, null
  br i1 %.not39, label %._crit_edge, label %.lr.ph

.lr.ph:                                           ; preds = %6, %67
  %.03040 = phi ptr [ %.030, %67 ], [ %.03038, %6 ]
  %8 = getelementptr inbounds nuw i8, ptr %.03040, i64 88
  %9 = load ptr, ptr %8, align 8, !tbaa !79
  %.not32 = icmp eq ptr %9, null
  br i1 %.not32, label %11, label %10

10:                                               ; preds = %.lr.ph
  tail call void @_Z24gmx_ana_poscalc_init_posP17gmx_ana_poscalc_tP13gmx_ana_pos_t(ptr noundef nonnull %.03040, ptr noundef nonnull %9)
  br label %11

11:                                               ; preds = %10, %.lr.ph
  %12 = getelementptr inbounds nuw i8, ptr %.03040, i64 104
  %13 = load ptr, ptr %12, align 8, !tbaa !80
  %.not33 = icmp eq ptr %13, null
  br i1 %.not33, label %.loopexit, label %14

14:                                               ; preds = %11
  %15 = getelementptr inbounds nuw i8, ptr %.03040, i64 56
  %16 = getelementptr inbounds nuw i8, ptr %.03040, i64 16
  %17 = load i32, ptr %16, align 8, !tbaa !87
  %18 = sext i32 %17 to i64
  %19 = tail call noundef ptr @_Z11save_callocPKcS0_imm(ptr noundef nonnull @.str.53, ptr noundef nonnull @.str.18, i32 noundef 649, i64 noundef range(i64 -2147483648, 2147483648) %18, i64 noundef 4)
  store ptr %19, ptr %15, align 8, !tbaa !102
  %20 = load i32, ptr %16, align 8, !tbaa !87
  %21 = icmp sgt i32 %20, 0
  br i1 %21, label %.preheader.lr.ph, label %.loopexit

.preheader.lr.ph:                                 ; preds = %14
  %22 = load ptr, ptr %12, align 8, !tbaa !80
  %23 = getelementptr inbounds nuw i8, ptr %22, i64 40
  %24 = load ptr, ptr %23, align 8, !tbaa !77
  %25 = getelementptr inbounds nuw i8, ptr %22, i64 24
  %26 = load ptr, ptr %25, align 8, !tbaa !75
  %27 = getelementptr inbounds nuw i8, ptr %.03040, i64 40
  %28 = load ptr, ptr %27, align 8, !tbaa !77
  %29 = getelementptr inbounds nuw i8, ptr %.03040, i64 24
  %30 = load ptr, ptr %29, align 8, !tbaa !75
  br label %.preheader

.preheader:                                       ; preds = %.preheader.lr.ph, %43
  %indvars.iv43 = phi i64 [ 0, %.preheader.lr.ph ], [ %indvars.iv.next44, %43 ]
  %.037 = phi i64 [ 0, %.preheader.lr.ph ], [ %46, %43 ]
  %31 = getelementptr inbounds nuw i32, ptr %30, i64 %indvars.iv43
  %32 = load i32, ptr %31, align 4, !tbaa !9
  %33 = sext i32 %32 to i64
  %34 = getelementptr inbounds i32, ptr %28, i64 %33
  %35 = load i32, ptr %34, align 4, !tbaa !9
  %sext = shl i64 %.037, 32
  %36 = ashr exact i64 %sext, 32
  br label %37

37:                                               ; preds = %37, %.preheader
  %indvars.iv = phi i64 [ %indvars.iv.next, %37 ], [ %36, %.preheader ]
  %38 = getelementptr inbounds i32, ptr %26, i64 %indvars.iv
  %39 = load i32, ptr %38, align 4, !tbaa !9
  %40 = sext i32 %39 to i64
  %41 = getelementptr inbounds i32, ptr %24, i64 %40
  %42 = load i32, ptr %41, align 4, !tbaa !9
  %.not35 = icmp eq i32 %42, %35
  %indvars.iv.next = add nsw i64 %indvars.iv, 1
  br i1 %.not35, label %43, label %37, !llvm.loop !103

43:                                               ; preds = %37
  %44 = trunc nsw i64 %indvars.iv to i32
  %45 = getelementptr inbounds nuw i32, ptr %19, i64 %indvars.iv43
  store i32 %44, ptr %45, align 4, !tbaa !9
  %indvars.iv.next44 = add nuw nsw i64 %indvars.iv43, 1
  %46 = add i64 %indvars.iv, 1
  %47 = load i32, ptr %16, align 8, !tbaa !87
  %48 = sext i32 %47 to i64
  %49 = icmp slt i64 %indvars.iv.next44, %48
  br i1 %49, label %.preheader, label %.loopexit, !llvm.loop !104

.loopexit:                                        ; preds = %43, %14, %11
  %50 = getelementptr inbounds nuw i8, ptr %.03040, i64 4
  %51 = load i32, ptr %50, align 4, !tbaa !78
  %52 = and i32 %51, 16
  %.not34 = icmp eq i32 %52, 0
  br i1 %.not34, label %67, label %53

53:                                               ; preds = %.loopexit
  %54 = getelementptr inbounds nuw i8, ptr %.03040, i64 48
  %55 = load i32, ptr %54, align 8, !tbaa !74
  %56 = icmp sgt i32 %55, 0
  br i1 %56, label %57, label %60

57:                                               ; preds = %53
  %58 = getelementptr inbounds nuw i8, ptr %.03040, i64 24
  %59 = load ptr, ptr %58, align 8, !tbaa !75
  tail call void @_Z9save_freePKcS0_iPv(ptr noundef nonnull @.str.54, ptr noundef nonnull @.str.18, i32 noundef 664, ptr noundef %59)
  store i32 0, ptr %54, align 8, !tbaa !74
  br label %60

60:                                               ; preds = %57, %53
  %61 = getelementptr inbounds nuw i8, ptr %.03040, i64 52
  %62 = load i32, ptr %61, align 4, !tbaa !76
  %63 = icmp sgt i32 %62, 0
  br i1 %63, label %64, label %67

64:                                               ; preds = %60
  %65 = getelementptr inbounds nuw i8, ptr %.03040, i64 40
  %66 = load ptr, ptr %65, align 8, !tbaa !77
  tail call void @_Z9save_freePKcS0_iPv(ptr noundef nonnull @.str.55, ptr noundef nonnull @.str.18, i32 noundef 669, ptr noundef %66)
  store i32 0, ptr %61, align 4, !tbaa !76
  br label %67

67:                                               ; preds = %60, %64, %.loopexit
  %68 = getelementptr inbounds nuw i8, ptr %.03040, i64 112
  %.030 = load ptr, ptr %68, align 8, !tbaa !86
  %.not = icmp eq ptr %.030, null
  br i1 %.not, label %._crit_edge.loopexit, label %.lr.ph, !llvm.loop !105

._crit_edge.loopexit:                             ; preds = %67
  %.pre = load ptr, ptr %0, align 8, !tbaa !84
  br label %._crit_edge

._crit_edge:                                      ; preds = %._crit_edge.loopexit, %6
  %69 = phi ptr [ %.pre, %._crit_edge.loopexit ], [ %2, %6 ]
  %70 = getelementptr inbounds nuw i8, ptr %69, i64 24
  store i8 1, ptr %70, align 8, !tbaa !99
  br label %71

71:                                               ; preds = %1, %._crit_edge
  ret void
}